target datalayout = "e-m:e-p270:32:32-p271:32:32-p272:64:64-i64:64-i128:128-f80:128-n8:16:32:64-S128"
target triple = "x86_64-pc-linux-gnu"

%"class.std::__1::locale::facet" = type { %"class.std::__1::__shared_count" }
%"class.std::__1::__shared_count" = type { ptr, i64 }
%"class.std::__1::ctype_byname.53" = type { %"class.std::__1::ctype.9", ptr }
%"class.std::__1::ctype.9" = type { %"class.std::__1::locale::facet" }

; Function Attrs: inlinehint mustprogress nounwind uwtable
define linkonce_odr hidden noundef i32 @_ZNSt3__18__locale10__iswblankB8ne210000EjP15__locale_struct(i32 noundef %0, ptr noundef %1) #4 comdat {
  %3 = alloca i32, align 4
  %4 = alloca ptr, align 8
  store i32 %0, ptr %3, align 4, !tbaa !41
  store ptr %1, ptr %4, align 8, !tbaa !102
  %5 = load i32, ptr %3, align 4, !tbaa !41
  %6 = load ptr, ptr %4, align 8, !tbaa !102
  %7 = call i32 @iswblank_l(i32 noundef %5, ptr noundef %6) #13
  ret i32 %7
}

; Function Attrs: inlinehint mustprogress nounwind uwtable
define linkonce_odr hidden noundef i32 @_ZNSt3__18__locale11__iswxdigitB8ne210000EjP15__locale_struct(i32 noundef %0, ptr noundef %1) #4 comdat {
  %3 = alloca i32, align 4
  %4 = alloca ptr, align 8
  store i32 %0, ptr %3, align 4, !tbaa !41
  store ptr %1, ptr %4, align 8, !tbaa !102
  %5 = load i32, ptr %3, align 4, !tbaa !41
  %6 = load ptr, ptr %4, align 8, !tbaa !102
  %7 = call i32 @iswxdigit_l(i32 noundef %5, ptr noundef %6) #13
  ret i32 %7
}

; Function Attrs: inlinehint mustprogress nounwind uwtable
define linkonce_odr hidden noundef i32 @_ZNSt3__18__locale10__iswpunctB8ne210000EjP15__locale_struct(i32 noundef %0, ptr noundef %1) #4 comdat {
  %3 = alloca i32, align 4
  %4 = alloca ptr, align 8
  store i32 %0, ptr %3, align 4, !tbaa !41
  store ptr %1, ptr %4, align 8, !tbaa !102
  %5 = load i32, ptr %3, align 4, !tbaa !41
  %6 = load ptr, ptr %4, align 8, !tbaa !102
  %7 = call i32 @iswpunct_l(i32 noundef %5, ptr noundef %6) #13
  ret i32 %7
}

; Function Attrs: inlinehint mustprogress nounwind uwtable
define linkonce_odr hidden noundef i32 @_ZNSt3__18__locale10__iswdigitB8ne210000EjP15__locale_struct(i32 noundef %0, ptr noundef %1) #4 comdat {
  %3 = alloca i32, align 4
  %4 = alloca ptr, align 8
  store i32 %0, ptr %3, align 4, !tbaa !41
  store ptr %1, ptr %4, align 8, !tbaa !102
  %5 = load i32, ptr %3, align 4, !tbaa !41
  %6 = load ptr, ptr %4, align 8, !tbaa !102
  %7 = call i32 @iswdigit_l(i32 noundef %5, ptr noundef %6) #13
  ret i32 %7
}

; Function Attrs: inlinehint mustprogress nounwind uwtable
define linkonce_odr hidden noundef i32 @_ZNSt3__18__locale10__iswalphaB8ne210000EjP15__locale_struct(i32 noundef %0, ptr noundef %1) #4 comdat {
  %3 = alloca i32, align 4
  %4 = alloca ptr, align 8
  store i32 %0, ptr %3, align 4, !tbaa !41
  store ptr %1, ptr %4, align 8, !tbaa !102
  %5 = load i32, ptr %3, align 4, !tbaa !41
  %6 = load ptr, ptr %4, align 8, !tbaa !102
  %7 = call i32 @iswalpha_l(i32 noundef %5, ptr noundef %6) #13
  ret i32 %7
}

; Function Attrs: inlinehint mustprogress nounwind uwtable
define linkonce_odr hidden noundef i32 @_ZNSt3__18__locale10__iswlowerB8ne210000EjP15__locale_struct(i32 noundef %0, ptr noundef %1) #4 comdat {
  %3 = alloca i32, align 4
  %4 = alloca ptr, align 8
  store i32 %0, ptr %3, align 4, !tbaa !41
  store ptr %1, ptr %4, align 8, !tbaa !102
  %5 = load i32, ptr %3, align 4, !tbaa !41
  %6 = load ptr, ptr %4, align 8, !tbaa !102
  %7 = call i32 @iswlower_l(i32 noundef %5, ptr noundef %6) #13
  ret i32 %7
}

; Function Attrs: inlinehint mustprogress nounwind uwtable
define linkonce_odr hidden noundef i32 @_ZNSt3__18__locale10__iswupperB8ne210000EjP15__locale_struct(i32 noundef %0, ptr noundef %1) #4 comdat {
  %3 = alloca i32, align 4
  %4 = alloca ptr, align 8
  store i32 %0, ptr %3, align 4, !tbaa !41
  store ptr %1, ptr %4, align 8, !tbaa !102
  %5 = load i32, ptr %3, align 4, !tbaa !41
  %6 = load ptr, ptr %4, align 8, !tbaa !102
  %7 = call i32 @iswupper_l(i32 noundef %5, ptr noundef %6) #13
  ret i32 %7
}

; Function Attrs: inlinehint mustprogress nounwind uwtable
define linkonce_odr hidden noundef i32 @_ZNSt3__18__locale10__iswcntrlB8ne210000EjP15__locale_struct(i32 noundef %0, ptr noundef %1) #4 comdat {
  %3 = alloca i32, align 4
  %4 = alloca ptr, align 8
  store i32 %0, ptr %3, align 4, !tbaa !41
  store ptr %1, ptr %4, align 8, !tbaa !102
  %5 = load i32, ptr %3, align 4, !tbaa !41
  %6 = load ptr, ptr %4, align 8, !tbaa !102
  %7 = call i32 @iswcntrl_l(i32 noundef %5, ptr noundef %6) #13
  ret i32 %7
}

; Function Attrs: inlinehint mustprogress nounwind uwtable
define linkonce_odr hidden noundef i32 @_ZNSt3__18__locale10__iswprintB8ne210000EjP15__locale_struct(i32 noundef %0, ptr noundef %1) #4 comdat {
  %3 = alloca i32, align 4
  %4 = alloca ptr, align 8
  store i32 %0, ptr %3, align 4, !tbaa !41
  store ptr %1, ptr %4, align 8, !tbaa !102
  %5 = load i32, ptr %3, align 4, !tbaa !41
  %6 = load ptr, ptr %4, align 8, !tbaa !102
  %7 = call i32 @iswprint_l(i32 noundef %5, ptr noundef %6) #13
  ret i32 %7
}

; Function Attrs: inlinehint mustprogress nounwind uwtable
define linkonce_odr hidden noundef i32 @_ZNSt3__18__locale10__iswspaceB8ne210000EjP15__locale_struct(i32 noundef %0, ptr noundef %1) #4 comdat {
  %3 = alloca i32, align 4
  %4 = alloca ptr, align 8
  store i32 %0, ptr %3, align 4, !tbaa !41
  store ptr %1, ptr %4, align 8, !tbaa !102
  %5 = load i32, ptr %3, align 4, !tbaa !41
  %6 = load ptr, ptr %4, align 8, !tbaa !102
  %7 = call i32 @iswspace_l(i32 noundef %5, ptr noundef %6) #13
  ret i32 %7
}

; Function Attrs: mustprogress uwtable
define dso_local noundef zeroext i1 @_ZNKSt3__112ctype_bynameIwE5do_isEtw(ptr noundef nonnull align 8 dereferenceable(24) %0, i16 noundef zeroext %1, i32 noundef signext %2) unnamed_addr #2 align 2 {
  %4 = alloca ptr, align 8
  %5 = alloca i16, align 2
  %6 = alloca i32, align 4
  %7 = alloca i32, align 4
  %8 = alloca i8, align 1
  store ptr %0, ptr %4, align 8, !tbaa !398
  store i16 %1, ptr %5, align 2, !tbaa !73
  store i32 %2, ptr %6, align 4, !tbaa !23
  %9 = load ptr, ptr %4, align 8
  call void @llvm.lifetime.start.p0(i64 4, ptr %7) #13
  %10 = load i32, ptr %6, align 4, !tbaa !23
  store i32 %10, ptr %7, align 4, !tbaa !41
  call void @llvm.lifetime.start.p0(i64 1, ptr %8) #13
  store i8 0, ptr %8, align 1, !tbaa !39
  %11 = load i16, ptr %5, align 2, !tbaa !73
  %12 = zext i16 %11 to i32
  %13 = and i32 %12, 8192
  %14 = icmp eq i32 %13, 8192
  br i1 %14, label %15, label %28

15:                                               ; preds = %3
  %16 = load i32, ptr %7, align 4, !tbaa !41
  %17 = getelementptr inbounds nuw %"class.std::__1::ctype_byname.53", ptr %9, i32 0, i32 1
  %18 = load ptr, ptr %17, align 8, !tbaa !470
  %19 = call noundef i32 @_ZNSt3__18__locale10__iswspaceB8ne210000EjP15__locale_struct(i32 noundef %16, ptr noundef %18)
  %20 = icmp ne i32 %19, 0
  %21 = zext i1 %20 to i32
  %22 = load i8, ptr %8, align 1, !tbaa !39, !range !57, !noundef !58
  %23 = trunc i8 %22 to i1
  %24 = zext i1 %23 to i32
  %25 = or i32 %24, %21
  %26 = icmp ne i32 %25, 0
  %27 = zext i1 %26 to i8
  store i8 %27, ptr %8, align 1, !tbaa !39
  br label %28

28:                                               ; preds = %15, %3
  %29 = load i16, ptr %5, align 2, !tbaa !73
  %30 = zext i16 %29 to i32
  %31 = and i32 %30, 16384
  %32 = icmp eq i32 %31, 16384
  br i1 %32, label %33, label %46

33:                                               ; preds = %28
  %34 = load i32, ptr %7, align 4, !tbaa !41
  %35 = getelementptr inbounds nuw %"class.std::__1::ctype_byname.53", ptr %9, i32 0, i32 1
  %36 = load ptr, ptr %35, align 8, !tbaa !470
  %37 = call noundef i32 @_ZNSt3__18__locale10__iswprintB8ne210000EjP15__locale_struct(i32 noundef %34, ptr noundef %36)
  %38 = icmp ne i32 %37, 0
  %39 = zext i1 %38 to i32
  %40 = load i8, ptr %8, align 1, !tbaa !39, !range !57, !noundef !58
  %41 = trunc i8 %40 to i1
  %42 = zext i1 %41 to i32
  %43 = or i32 %42, %39
  %44 = icmp ne i32 %43, 0
  %45 = zext i1 %44 to i8
  store i8 %45, ptr %8, align 1, !tbaa !39
  br label %46

46:                                               ; preds = %33, %28
  %47 = load i16, ptr %5, align 2, !tbaa !73
  %48 = zext i16 %47 to i32
  %49 = and i32 %48, 2
  %50 = icmp eq i32 %49, 2
  br i1 %50, label %51, label %64

51:                                               ; preds = %46
  %52 = load i32, ptr %7, align 4, !tbaa !41
  %53 = getelementptr inbounds nuw %"class.std::__1::ctype_byname.53", ptr %9, i32 0, i32 1
  %54 = load ptr, ptr %53, align 8, !tbaa !470
  %55 = call noundef i32 @_ZNSt3__18__locale10__iswcntrlB8ne210000EjP15__locale_struct(i32 noundef %52, ptr noundef %54)
  %56 = icmp ne i32 %55, 0
  %57 = zext i1 %56 to i32
  %58 = load i8, ptr %8, align 1, !tbaa !39, !range !57, !noundef !58
  %59 = trunc i8 %58 to i1
  %60 = zext i1 %59 to i32
  %61 = or i32 %60, %57
  %62 = icmp ne i32 %61, 0
  %63 = zext i1 %62 to i8
  store i8 %63, ptr %8, align 1, !tbaa !39
  br label %64

64:                                               ; preds = %51, %46
  %65 = load i16, ptr %5, align 2, !tbaa !73
  %66 = zext i16 %65 to i32
  %67 = and i32 %66, 256
  %68 = icmp eq i32 %67, 256
  br i1 %68, label %69, label %82

69:                                               ; preds = %64
  %70 = load i32, ptr %7, align 4, !tbaa !41
  %71 = getelementptr inbounds nuw %"class.std::__1::ctype_byname.53", ptr %9, i32 0, i32 1
  %72 = load ptr, ptr %71, align 8, !tbaa !470
  %73 = call noundef i32 @_ZNSt3__18__locale10__iswupperB8ne210000EjP15__locale_struct(i32 noundef %70, ptr noundef %72)
  %74 = icmp ne i32 %73, 0
  %75 = zext i1 %74 to i32
  %76 = load i8, ptr %8, align 1, !tbaa !39, !range !57, !noundef !58
  %77 = trunc i8 %76 to i1
  %78 = zext i1 %77 to i32
  %79 = or i32 %78, %75
  %80 = icmp ne i32 %79, 0
  %81 = zext i1 %80 to i8
  store i8 %81, ptr %8, align 1, !tbaa !39
  br label %82

82:                                               ; preds = %69, %64
  %83 = load i16, ptr %5, align 2, !tbaa !73
  %84 = zext i16 %83 to i32
  %85 = and i32 %84, 512
  %86 = icmp eq i32 %85, 512
  br i1 %86, label %87, label %100

87:                                               ; preds = %82
  %88 = load i32, ptr %7, align 4, !tbaa !41
  %89 = getelementptr inbounds nuw %"class.std::__1::ctype_byname.53", ptr %9, i32 0, i32 1
  %90 = load ptr, ptr %89, align 8, !tbaa !470
  %91 = call noundef i32 @_ZNSt3__18__locale10__iswlowerB8ne210000EjP15__locale_struct(i32 noundef %88, ptr noundef %90)
  %92 = icmp ne i32 %91, 0
  %93 = zext i1 %92 to i32
  %94 = load i8, ptr %8, align 1, !tbaa !39, !range !57, !noundef !58
  %95 = trunc i8 %94 to i1
  %96 = zext i1 %95 to i32
  %97 = or i32 %96, %93
  %98 = icmp ne i32 %97, 0
  %99 = zext i1 %98 to i8
  store i8 %99, ptr %8, align 1, !tbaa !39
  br label %100

100:                                              ; preds = %87, %82
  %101 = load i16, ptr %5, align 2, !tbaa !73
  %102 = zext i16 %101 to i32
  %103 = and i32 %102, 1024
  %104 = icmp eq i32 %103, 1024
  br i1 %104, label %105, label %118

105:                                              ; preds = %100
  %106 = load i32, ptr %7, align 4, !tbaa !41
  %107 = getelementptr inbounds nuw %"class.std::__1::ctype_byname.53", ptr %9, i32 0, i32 1
  %108 = load ptr, ptr %107, align 8, !tbaa !470
  %109 = call noundef i32 @_ZNSt3__18__locale10__iswalphaB8ne210000EjP15__locale_struct(i32 noundef %106, ptr noundef %108)
  %110 = icmp ne i32 %109, 0
  %111 = zext i1 %110 to i32
  %112 = load i8, ptr %8, align 1, !tbaa !39, !range !57, !noundef !58
  %113 = trunc i8 %112 to i1
  %114 = zext i1 %113 to i32
  %115 = or i32 %114, %111
  %116 = icmp ne i32 %115, 0
  %117 = zext i1 %116 to i8
  store i8 %117, ptr %8, align 1, !tbaa !39
  br label %118

118:                                              ; preds = %105, %100
  %119 = load i16, ptr %5, align 2, !tbaa !73
  %120 = zext i16 %119 to i32
  %121 = and i32 %120, 2048
  %122 = icmp eq i32 %121, 2048
  br i1 %122, label %123, label %136

123:                                              ; preds = %118
  %124 = load i32, ptr %7, align 4, !tbaa !41
  %125 = getelementptr inbounds nuw %"class.std::__1::ctype_byname.53", ptr %9, i32 0, i32 1
  %126 = load ptr, ptr %125, align 8, !tbaa !470
  %127 = call noundef i32 @_ZNSt3__18__locale10__iswdigitB8ne210000EjP15__locale_struct(i32 noundef %124, ptr noundef %126)
  %128 = icmp ne i32 %127, 0
  %129 = zext i1 %128 to i32
  %130 = load i8, ptr %8, align 1, !tbaa !39, !range !57, !noundef !58
  %131 = trunc i8 %130 to i1
  %132 = zext i1 %131 to i32
  %133 = or i32 %132, %129
  %134 = icmp ne i32 %133, 0
  %135 = zext i1 %134 to i8
  store i8 %135, ptr %8, align 1, !tbaa !39
  br label %136

136:                                              ; preds = %123, %118
  %137 = load i16, ptr %5, align 2, !tbaa !73
  %138 = zext i16 %137 to i32
  %139 = and i32 %138, 4
  %140 = icmp eq i32 %139, 4
  br i1 %140, label %141, label %154

141:                                              ; preds = %136
  %142 = load i32, ptr %7, align 4, !tbaa !41
  %143 = getelementptr inbounds nuw %"class.std::__1::ctype_byname.53", ptr %9, i32 0, i32 1
  %144 = load ptr, ptr %143, align 8, !tbaa !470
  %145 = call noundef i32 @_ZNSt3__18__locale10__iswpunctB8ne210000EjP15__locale_struct(i32 noundef %142, ptr noundef %144)
  %146 = icmp ne i32 %145, 0
  %147 = zext i1 %146 to i32
  %148 = load i8, ptr %8, align 1, !tbaa !39, !range !57, !noundef !58
  %149 = trunc i8 %148 to i1
  %150 = zext i1 %149 to i32
  %151 = or i32 %150, %147
  %152 = icmp ne i32 %151, 0
  %153 = zext i1 %152 to i8
  store i8 %153, ptr %8, align 1, !tbaa !39
  br label %154

154:                                              ; preds = %141, %136
  %155 = load i16, ptr %5, align 2, !tbaa !73
  %156 = zext i16 %155 to i32
  %157 = and i32 %156, 4096
  %158 = icmp eq i32 %157, 4096
  br i1 %158, label %159, label %172

159:                                              ; preds = %154
  %160 = load i32, ptr %7, align 4, !tbaa !41
  %161 = getelementptr inbounds nuw %"class.std::__1::ctype_byname.53", ptr %9, i32 0, i32 1
  %162 = load ptr, ptr %161, align 8, !tbaa !470
  %163 = call noundef i32 @_ZNSt3__18__locale11__iswxdigitB8ne210000EjP15__locale_struct(i32 noundef %160, ptr noundef %162)
  %164 = icmp ne i32 %163, 0
  %165 = zext i1 %164 to i32
  %166 = load i8, ptr %8, align 1, !tbaa !39, !range !57, !noundef !58
  %167 = trunc i8 %166 to i1
  %168 = zext i1 %167 to i32
  %169 = or i32 %168, %165
  %170 = icmp ne i32 %169, 0
  %171 = zext i1 %170 to i8
  store i8 %171, ptr %8, align 1, !tbaa !39
  br label %172

172:                                              ; preds = %159, %154
  %173 = load i16, ptr %5, align 2, !tbaa !73
  %174 = zext i16 %173 to i32
  %175 = and i32 %174, 1
  %176 = icmp eq i32 %175, 1
  br i1 %176, label %177, label %190

177:                                              ; preds = %172
  %178 = load i32, ptr %7, align 4, !tbaa !41
  %179 = getelementptr inbounds nuw %"class.std::__1::ctype_byname.53", ptr %9, i32 0, i32 1
  %180 = load ptr, ptr %179, align 8, !tbaa !470
  %181 = call noundef i32 @_ZNSt3__18__locale10__iswblankB8ne210000EjP15__locale_struct(i32 noundef %178, ptr noundef %180)
  %182 = icmp ne i32 %181, 0
  %183 = zext i1 %182 to i32
  %184 = load i8, ptr %8, align 1, !tbaa !39, !range !57, !noundef !58
  %185 = trunc i8 %184 to i1
  %186 = zext i1 %185 to i32
  %187 = or i32 %186, %183
  %188 = icmp ne i32 %187, 0
  %189 = zext i1 %188 to i8
  store i8 %189, ptr %8, align 1, !tbaa !39
  br label %190

190:                                              ; preds = %177, %172
  %191 = load i8, ptr %8, align 1, !tbaa !39, !range !57, !noundef !58
  %192 = trunc i8 %191 to i1
  call void @llvm.lifetime.end.p0(i64 1, ptr %8) #13
  call void @llvm.lifetime.end.p0(i64 4, ptr %7) #13
  ret i1 %192
}