; Function Attrs: mustprogress nounwind uwtable
define dso_local noundef zeroext i1 @_ZNKSt3__112ctype_bynameIwE5do_isEtw(ptr noundef nonnull readonly align 8 captures(none) dereferenceable(24) %0, i16 noundef zeroext %1, i32 noundef signext %2) unnamed_addr #0 align 2 {
  %4 = zext i16 %1 to i32
  %5 = and i32 %4, 8192
  %.not = icmp eq i32 %5, 0
  br i1 %.not, label %11, label %6

6:                                                ; preds = %3
  %7 = getelementptr inbounds nuw i8, ptr %0, i64 16
  %8 = load ptr, ptr %7, align 8, !tbaa !398
  %9 = tail call noundef i32 @iswspace_l(i32 noundef %2, ptr noundef %8) #45
  %10 = icmp ne i32 %9, 0
  br label %11

11:                                               ; preds = %6, %3
  %.0 = phi i1 [ %10, %6 ], [ false, %3 ]
  %12 = and i32 %4, 16384
  %.not32 = icmp eq i32 %12, 0
  br i1 %.not32, label %19, label %13

13:                                               ; preds = %11
  %14 = getelementptr inbounds nuw i8, ptr %0, i64 16
  %15 = load ptr, ptr %14, align 8, !tbaa !398
  %16 = tail call noundef i32 @iswprint_l(i32 noundef %2, ptr noundef %15) #45
  %17 = icmp ne i32 %16, 0
  %18 = or i1 %.0, %17
  br label %19

19:                                               ; preds = %13, %11
  %.1 = phi i1 [ %18, %13 ], [ %.0, %11 ]
  %20 = and i32 %4, 2
  %.not33 = icmp eq i32 %20, 0
  br i1 %.not33, label %27, label %21

21:                                               ; preds = %19
  %22 = getelementptr inbounds nuw i8, ptr %0, i64 16
  %23 = load ptr, ptr %22, align 8, !tbaa !398
  %24 = tail call noundef i32 @iswcntrl_l(i32 noundef %2, ptr noundef %23) #45
  %25 = icmp ne i32 %24, 0
  %26 = or i1 %.1, %25
  br label %27

27:                                               ; preds = %21, %19
  %.2 = phi i1 [ %26, %21 ], [ %.1, %19 ]
  %28 = and i32 %4, 256
  %.not34 = icmp eq i32 %28, 0
  br i1 %.not34, label %35, label %29

29:                                               ; preds = %27
  %30 = getelementptr inbounds nuw i8, ptr %0, i64 16
  %31 = load ptr, ptr %30, align 8, !tbaa !398
  %32 = tail call noundef i32 @iswupper_l(i32 noundef %2, ptr noundef %31) #45
  %33 = icmp ne i32 %32, 0
  %34 = or i1 %.2, %33
  br label %35

35:                                               ; preds = %29, %27
  %.3 = phi i1 [ %34, %29 ], [ %.2, %27 ]
  %36 = and i32 %4, 512
  %.not35 = icmp eq i32 %36, 0
  br i1 %.not35, label %43, label %37

37:                                               ; preds = %35
  %38 = getelementptr inbounds nuw i8, ptr %0, i64 16
  %39 = load ptr, ptr %38, align 8, !tbaa !398
  %40 = tail call noundef i32 @iswlower_l(i32 noundef %2, ptr noundef %39) #45
  %41 = icmp ne i32 %40, 0
  %42 = or i1 %.3, %41
  br label %43

43:                                               ; preds = %37, %35
  %.4 = phi i1 [ %42, %37 ], [ %.3, %35 ]
  %44 = and i32 %4, 1024
  %.not36 = icmp eq i32 %44, 0
  br i1 %.not36, label %51, label %45

45:                                               ; preds = %43
  %46 = getelementptr inbounds nuw i8, ptr %0, i64 16
  %47 = load ptr, ptr %46, align 8, !tbaa !398
  %48 = tail call noundef i32 @iswalpha_l(i32 noundef %2, ptr noundef %47) #45
  %49 = icmp ne i32 %48, 0
  %50 = or i1 %.4, %49
  br label %51

51:                                               ; preds = %45, %43
  %.5 = phi i1 [ %50, %45 ], [ %.4, %43 ]
  %52 = and i32 %4, 2048
  %.not37 = icmp eq i32 %52, 0
  br i1 %.not37, label %59, label %53

53:                                               ; preds = %51
  %54 = getelementptr inbounds nuw i8, ptr %0, i64 16
  %55 = load ptr, ptr %54, align 8, !tbaa !398
  %56 = tail call noundef i32 @iswdigit_l(i32 noundef %2, ptr noundef %55) #45
  %57 = icmp ne i32 %56, 0
  %58 = or i1 %.5, %57
  br label %59

59:                                               ; preds = %53, %51
  %.6 = phi i1 [ %58, %53 ], [ %.5, %51 ]
  %60 = and i32 %4, 4
  %.not38 = icmp eq i32 %60, 0
  br i1 %.not38, label %67, label %61

61:                                               ; preds = %59
  %62 = getelementptr inbounds nuw i8, ptr %0, i64 16
  %63 = load ptr, ptr %62, align 8, !tbaa !398
  %64 = tail call noundef i32 @iswpunct_l(i32 noundef %2, ptr noundef %63) #45
  %65 = icmp ne i32 %64, 0
  %66 = or i1 %.6, %65
  br label %67

67:                                               ; preds = %61, %59
  %.7 = phi i1 [ %66, %61 ], [ %.6, %59 ]
  %68 = and i32 %4, 4096
  %.not39 = icmp eq i32 %68, 0
  br i1 %.not39, label %75, label %69

69:                                               ; preds = %67
  %70 = getelementptr inbounds nuw i8, ptr %0, i64 16
  %71 = load ptr, ptr %70, align 8, !tbaa !398
  %72 = tail call noundef i32 @iswxdigit_l(i32 noundef %2, ptr noundef %71) #45
  %73 = icmp ne i32 %72, 0
  %74 = or i1 %.7, %73
  br label %75

75:                                               ; preds = %69, %67
  %.8 = phi i1 [ %74, %69 ], [ %.7, %67 ]
  %76 = and i32 %4, 1
  %.not40 = icmp eq i32 %76, 0
  br i1 %.not40, label %83, label %77

77:                                               ; preds = %75
  %78 = getelementptr inbounds nuw i8, ptr %0, i64 16
  %79 = load ptr, ptr %78, align 8, !tbaa !398
  %80 = tail call noundef i32 @iswblank_l(i32 noundef %2, ptr noundef %79) #45
  %81 = icmp ne i32 %80, 0
  %82 = or i1 %.8, %81
  br label %83

83:                                               ; preds = %77, %75
  %.9 = phi i1 [ %82, %77 ], [ %.8, %75 ]
  ret i1 %.9
}